; Function Attrs: mustprogress uwtable
define internal fastcc void @_ZN5arrow12_GLOBAL__N_119ScalarEqualsVisitor5VisitERKNS_16DictionaryScalarE(ptr dead_on_unwind noalias nonnull writable writeonly align 8 captures(none) initializes((0, 8)) %0, ptr noundef nonnull align 8 dereferenceable(34) %1, ptr noundef nonnull readonly align 8 captures(none) dereferenceable(80) %2) unnamed_addr #1 align 2 {
  %4 = alloca %"class.arrow::Status", align 8
  %5 = load ptr, ptr %1, align 8, !tbaa !1011
  %6 = getelementptr inbounds nuw i8, ptr %2, i64 48
  %7 = load ptr, ptr %6, align 8, !tbaa !260
  %8 = getelementptr inbounds nuw i8, ptr %5, i64 48
  %9 = load ptr, ptr %8, align 8, !tbaa !260
  %10 = getelementptr inbounds nuw i8, ptr %1, i64 8
  %11 = getelementptr inbounds nuw i8, ptr %1, i64 32
  %12 = load i8, ptr %11, align 8, !tbaa !117, !range !81, !noundef !82
  %13 = trunc nuw i8 %12 to i1
  %14 = tail call fastcc noundef zeroext i1 @_ZN5arrow12_GLOBAL__N_112ScalarEqualsERKNS_6ScalarES3_RKNS_12EqualOptionsEb(ptr noundef nonnull align 8 dereferenceable(41) %7, ptr noundef nonnull align 8 dereferenceable(41) %9, ptr noundef nonnull align 8 dereferenceable(24) %10, i1 noundef zeroext %13)
  br i1 %14, label %15, label %42

15:                                               ; preds = %3
  %16 = getelementptr inbounds nuw i8, ptr %2, i64 64
  %17 = load ptr, ptr %16, align 8, !tbaa !257
  %18 = getelementptr inbounds nuw i8, ptr %5, i64 64
  %19 = load ptr, ptr %18, align 8, !tbaa !257
  %20 = load i8, ptr %11, align 8, !tbaa !117, !range !81, !noundef !82
  call void @llvm.lifetime.start.p0(i64 8, ptr nonnull %4)
  %21 = getelementptr inbounds nuw i8, ptr %17, i64 8
  %22 = load ptr, ptr %21, align 8, !tbaa !32
  %23 = getelementptr inbounds nuw i8, ptr %22, i64 16
  %24 = load i64, ptr %23, align 8, !tbaa !57
  %25 = getelementptr inbounds nuw i8, ptr %19, i64 8
  %26 = load ptr, ptr %25, align 8, !tbaa !32
  %27 = getelementptr inbounds nuw i8, ptr %26, i64 16
  %28 = load i64, ptr %27, align 8, !tbaa !57
  %.not.i = icmp eq i64 %24, %28
  br i1 %.not.i, label %38, label %29

29:                                               ; preds = %15
  %30 = getelementptr inbounds nuw i8, ptr %1, i64 24
  %31 = load ptr, ptr %30, align 8, !tbaa !92
  call fastcc void @_ZN5arrow12_GLOBAL__N_19PrintDiffERKNS_5ArrayES3_llllPSo(ptr dead_on_unwind noalias nonnull writable align 8 %4, ptr noundef nonnull align 8 dereferenceable(32) %17, ptr noundef nonnull align 8 dereferenceable(32) %19, i64 noundef 0, i64 noundef %24, i64 noundef 0, i64 noundef %28, ptr noundef %31)
  %32 = load ptr, ptr %4, align 8, !tbaa !93
  %.not.i.i = icmp eq ptr %32, null
  br i1 %.not.i.i, label %_ZN5arrow12_GLOBAL__N_111ArrayEqualsERKNS_5ArrayES3_RKNS_12EqualOptionsEb.exit, label %33, !prof !96

33:                                               ; preds = %29
  %34 = getelementptr inbounds nuw i8, ptr %32, i64 1
  %35 = load i8, ptr %34, align 1, !tbaa !97, !range !81, !noundef !82
  %36 = trunc nuw i8 %35 to i1
  br i1 %36, label %_ZN5arrow12_GLOBAL__N_111ArrayEqualsERKNS_5ArrayES3_RKNS_12EqualOptionsEb.exit, label %37

37:                                               ; preds = %33
  call void @_ZN5arrow6Status11DeleteStateEv(ptr noundef nonnull align 8 dereferenceable(8) %4) #25
  br label %_ZN5arrow12_GLOBAL__N_111ArrayEqualsERKNS_5ArrayES3_RKNS_12EqualOptionsEb.exit

38:                                               ; preds = %15
  %39 = trunc nuw i8 %20 to i1
  %40 = tail call fastcc noundef zeroext i1 @_ZN5arrow12_GLOBAL__N_116ArrayRangeEqualsERKNS_5ArrayES3_lllRKNS_12EqualOptionsEb(ptr noundef nonnull align 8 dereferenceable(32) %17, ptr noundef nonnull align 8 dereferenceable(32) %19, i64 noundef 0, i64 noundef %24, i64 noundef 0, ptr noundef nonnull align 8 dereferenceable(24) %10, i1 noundef zeroext %39)
  %41 = zext i1 %40 to i8
  br label %_ZN5arrow12_GLOBAL__N_111ArrayEqualsERKNS_5ArrayES3_RKNS_12EqualOptionsEb.exit

_ZN5arrow12_GLOBAL__N_111ArrayEqualsERKNS_5ArrayES3_RKNS_12EqualOptionsEb.exit: ; preds = %29, %33, %37, %38
  %.0.i = phi i8 [ %41, %38 ], [ 0, %29 ], [ 0, %33 ], [ 0, %37 ]
  call void @llvm.lifetime.end.p0(i64 8, ptr nonnull %4)
  br label %42

42:                                               ; preds = %_ZN5arrow12_GLOBAL__N_111ArrayEqualsERKNS_5ArrayES3_RKNS_12EqualOptionsEb.exit, %3
  %43 = phi i8 [ 0, %3 ], [ %.0.i, %_ZN5arrow12_GLOBAL__N_111ArrayEqualsERKNS_5ArrayES3_RKNS_12EqualOptionsEb.exit ]
  %44 = getelementptr inbounds nuw i8, ptr %1, i64 33
  store i8 %43, ptr %44, align 1, !tbaa !119
  store ptr null, ptr %0, align 8, !tbaa !93, !alias.scope !1069
  ret void
}